Certificate:
    Data:
        Version: 3 (0x2)
        Serial Number: 2 (0x2)
        Signature Algorithm: sha1WithRSAEncryption
        Issuer: C=cn, ST=js, L=suzhou, O=richard, OU=richard, CN=richard/name=richard/emailAddress=richard@qq.com
        Validity
            Not Before: Jul  3 19:31:51 2012 GMT
            Not After : Jul  1 19:31:51 2022 GMT
        Subject: C=cn, ST=js, L=suzhou, O=richard, OU=richard, CN=client1/name=richard/emailAddress=richard@qq.com
        Subject Public Key Info:
            Public Key Algorithm: rsaEncryption
                Public-Key: (1024 bit)
                Modulus:
                    00:d8:44:8a:7c:6d:2f:a4:de:2b:df:a0:ee:2d:8d:
                    bf:7b:64:d6:45:1f:27:d0:d2:3a:23:a8:06:ac:37:
                    bf:0d:c8:80:25:4d:35:da:8a:ce:df:57:a2:74:61:
                    27:4e:d2:33:a1:0f:db:74:e1:f1:0c:31:33:13:2a:
                    9a:64:e1:64:07:79:8e:c7:5e:84:53:ef:60:06:62:
                    cd:61:fd:6c:8e:2c:94:86:7a:ef:ac:45:ae:05:36:
                    98:0e:df:97:b9:d1:81:b0:24:27:9b:ad:11:e4:7b:
                    c0:70:0d:39:53:9c:e2:80:fd:c1:29:b3:88:6b:a4:
                    32:88:6b:a5:c9:1e:8d:35:d9
                Exponent: 65537 (0x10001)
        X509v3 extensions:
            X509v3 Basic Constraints: 
                CA:FALSE
            Netscape Comment: 
                Easy-RSA Generated Certificate
            X509v3 Subject Key Identifier: 
                5D:94:3F:FE:D6:61:0B:84:26:F6:E3:A8:F4:01:6B:C7:3A:D3:78:56
            X509v3 Authority Key Identifier: 
                keyid:5E:7D:A7:80:3A:E2:05:F9:40:48:0E:01:32:5D:EE:05:D1:66:51:50
                DirName:/C=cn/ST=js/L=suzhou/O=richard/OU=richard/CN=richard/name=richard/emailAddress=richard@qq.com
                serial:E7:3A:34:84:E2:C0:FF:18

            X509v3 Extended Key Usage: 
                TLS Web Client Authentication
            X509v3 Key Usage: 
                Digital Signature
    Signature Algorithm: sha1WithRSAEncryption
        48:39:e3:65:71:5c:04:47:d2:ae:8d:57:ca:28:01:f7:cf:b0:
        8b:eb:40:8a:8c:93:92:35:da:20:90:16:02:3e:66:a9:63:4a:
        1e:4c:15:5a:d7:47:2c:5d:46:dc:99:67:c9:24:34:5e:f7:39:
        30:d6:e7:54:7a:b9:0f:bc:1b:be:d3:a8:d5:fb:26:7b:d6:9b:
        f2:bb:bf:14:1a:28:e8:6f:95:55:54:fe:20:a2:f7:ac:61:c0:
        8f:5b:39:c1:09:0f:0c:98:98:a7:a9:43:b8:64:ec:6e:12:a2:
        52:8b:69:32:ea:2c:26:ae:81:9a:c7:f2:ff:83:f3:32:d2:10:
        da:f7
-----BEGIN CERTIFICATE-----
MIID5zCCA1CgAwIBAgIBAjANBgkqhkiG9w0BAQUFADCBkjELMAkGA1UEBhMCY24x
CzAJBgNVBAgTAmpzMQ8wDQYDVQQHEwZzdXpob3UxEDAOBgNVBAoTB3JpY2hhcmQx
EDAOBgNVBAsTB3JpY2hhcmQxEDAOBgNVBAMTB3JpY2hhcmQxEDAOBgNVBCkTB3Jp
Y2hhcmQxHTAbBgkqhkiG9w0BCQEWDnJpY2hhcmRAcXEuY29tMB4XDTEyMDcwMzE5
MzE1MVoXDTIyMDcwMTE5MzE1MVowgZIxCzAJBgNVBAYTAmNuMQswCQYDVQQIEwJq
czEPMA0GA1UEBxMGc3V6aG91MRAwDgYDVQQKEwdyaWNoYXJkMRAwDgYDVQQLEwdy
aWNoYXJkMRAwDgYDVQQDEwdjbGllbnQxMRAwDgYDVQQpEwdyaWNoYXJkMR0wGwYJ
KoZIhvcNAQkBFg5yaWNoYXJkQHFxLmNvbTCBnzANBgkqhkiG9w0BAQEFAAOBjQAw
gYkCgYEA2ESKfG0vpN4r36DuLY2/e2TWRR8n0NI6I6gGrDe/DciAJU012orO31ei
dGEnTtIzoQ/bdOHxDDEzEyqaZOFkB3mOx16EU+9gBmLNYf1sjiyUhnrvrEWuBTaY
Dt+XudGBsCQnm60R5HvAcA05U5zigP3BKbOIa6QyiGulyR6NNdkCAwEAAaOCAUkw
ggFFMAkGA1UdEwQCMAAwLQYJYIZIAYb4QgENBCAWHkVhc3ktUlNBIEdlbmVyYXRl
ZCBDZXJ0aWZpY2F0ZTAdBgNVHQ4EFgQUXZQ//tZhC4Qm9uOo9AFrxzrTeFYwgccG
A1UdIwSBvzCBvIAUXn2ngDriBflASA4BMl3uBdFmUVChgZikgZUwgZIxCzAJBgNV
BAYTAmNuMQswCQYDVQQIEwJqczEPMA0GA1UEBxMGc3V6aG91MRAwDgYDVQQKEwdy
aWNoYXJkMRAwDgYDVQQLEwdyaWNoYXJkMRAwDgYDVQQDEwdyaWNoYXJkMRAwDgYD
VQQpEwdyaWNoYXJkMR0wGwYJKoZIhvcNAQkBFg5yaWNoYXJkQHFxLmNvbYIJAOc6
NITiwP8YMBMGA1UdJQQMMAoGCCsGAQUFBwMCMAsGA1UdDwQEAwIHgDANBgkqhkiG
9w0BAQUFAAOBgQBIOeNlcVwER9KujVfKKAH3z7CL60CKjJOSNdogkBYCPmapY0oe
TBVa10csXUbcmWfJJDRe9zkw1udUerkPvBu+06jV+yZ71pvyu78UGijob5VVVP4g
ovesYcCPWznBCQ8MmJinqUO4ZOxuEqJSi2ky6iwmroGax/L/g/My0hDa9w==
-----END CERTIFICATE-----
